; Function Attrs: mustprogress nounwind uwtable
define hidden noundef i64 @_ZNK9EdgeStore6get_idEPK4Edge(ptr nocapture noundef nonnull readonly align 8 dereferenceable(8) %0, ptr nocapture noundef readonly %1) local_unnamed_addr #0 align 2 {
  %3 = load ptr, ptr %0, align 8
  %4 = getelementptr inbounds i8, ptr %1, i64 8
  %.sroa.0.0.copyload.i = load i64, ptr %4, align 8
  %5 = lshr i64 %.sroa.0.0.copyload.i, 1
  %6 = and i64 %5, 9223372036854775804
  %7 = getelementptr inbounds i8, ptr %3, i64 8
  %8 = load i64, ptr %7, align 8
  %9 = urem i64 %6, %8
  %10 = load ptr, ptr %3, align 8
  %11 = getelementptr inbounds %class.JfrHashtableBucket, ptr %10, i64 %9
  %12 = load volatile ptr, ptr %11, align 8
  tail call void asm sideeffect "", "~{memory},~{dirflag},~{fpsr},~{flags}"() #13, !srcloc !6
  %.not11.i = icmp ne ptr %12, null
  tail call void @llvm.assume(i1 %.not11.i)
  %13 = getelementptr inbounds i8, ptr %12, i64 40
  %14 = load i64, ptr %13, align 8
  %15 = icmp eq i64 %14, %6
  br i1 %15, label %_ZN13HashTableHostI10StoredEdgem17JfrHashtableEntry9EdgeStoreLm1009EE11lookup_onlyEm.exit, label %.lr.ph.i

.lr.ph.i:                                         ; preds = %2, %.lr.ph.i
  %.012.i3 = phi ptr [ %16, %.lr.ph.i ], [ %12, %2 ]
  %16 = load ptr, ptr %.012.i3, align 8, !nonnull !9, !noundef !9
  %17 = getelementptr inbounds i8, ptr %16, i64 40
  %18 = load i64, ptr %17, align 8
  %19 = icmp eq i64 %18, %6
  br i1 %19, label %_ZN13HashTableHostI10StoredEdgem17JfrHashtableEntry9EdgeStoreLm1009EE11lookup_onlyEm.exit, label %.lr.ph.i

_ZN13HashTableHostI10StoredEdgem17JfrHashtableEntry9EdgeStoreLm1009EE11lookup_onlyEm.exit: ; preds = %.lr.ph.i, %2
  %.012.i.lcssa = phi ptr [ %12, %2 ], [ %16, %.lr.ph.i ]
  %20 = getelementptr inbounds i8, ptr %.012.i.lcssa, i64 48
  %21 = load i64, ptr %20, align 8
  ret i64 %21
}